Certificate Request:
    Data:
        Version: 0 (0x0)
        Subject: C=US, ST=CA, L=Palo Alto, O=Open vSwitch, OU=Open vSwitch certifier, CN=tests/pki/test2 id:568adc73-3486-4440-b230-2366af2ffd4d
        Subject Public Key Info:
            Public Key Algorithm: rsaEncryption
                Public-Key: (2048 bit)
                Modulus:
                    00:c0:d6:1f:d0:cb:42:bd:21:a8:2d:4a:bf:25:bb:
                    02:a8:cd:5a:6c:93:e5:14:c4:c1:5f:b9:c9:a6:49:
                    f2:bb:2b:5b:24:ca:19:f3:45:8c:51:0a:e4:4e:78:
                    5f:e9:ea:d2:2d:9f:d4:95:2e:50:62:41:8f:85:30:
                    8b:48:fa:1c:5f:1b:fb:ba:1e:eb:9c:20:7e:ed:11:
                    28:0f:cf:bf:72:d9:3c:41:ab:c7:2a:21:91:91:a1:
                    c8:0a:ad:ec:11:c1:7b:eb:b2:5a:5a:6c:fb:20:49:
                    76:5c:97:bd:12:fa:47:03:66:73:34:ad:a4:48:ee:
                    c8:d5:e4:38:11:f3:ad:73:79:94:e2:b6:68:b9:7a:
                    ee:26:d8:cb:40:f5:32:37:dc:6b:5e:9b:6a:4f:0c:
                    41:77:b1:21:97:c9:c7:ad:ea:dd:6a:30:9b:6e:7c:
                    b1:b5:3d:e8:c5:73:df:c9:74:fb:08:3c:60:b8:46:
                    6c:d9:2a:ea:34:ed:f1:d9:d4:a4:4a:6a:8f:0e:c6:
                    e9:19:1b:6c:3b:68:ba:f2:23:17:f7:c5:61:35:10:
                    f5:c5:70:e9:f3:1b:66:d0:cc:65:9f:55:f7:c1:38:
                    58:a1:c8:42:4c:81:e8:70:0f:63:fc:e1:3f:df:1d:
                    a6:a9:28:19:9e:8e:67:00:32:92:f5:2a:d3:49:a1:
                    fb:79
                Exponent: 65537 (0x10001)
        Attributes:
            a0:00
    Signature Algorithm: sha256WithRSAEncryption
         9f:b6:c0:2c:67:3f:6b:7b:5c:81:c0:a1:76:d8:bb:77:b4:fd:
         6f:04:83:59:bf:b6:f2:3f:9a:d5:0c:63:47:5b:0e:42:bf:5a:
         1d:57:f1:2e:a8:d0:4b:1e:23:53:4f:ce:ac:5c:4d:30:39:33:
         57:27:8e:71:ef:cd:82:54:9d:28:bc:85:59:71:a9:45:9a:62:
         d2:1c:9d:1d:bc:9f:59:c3:5e:7a:bd:7a:18:ce:a7:53:26:36:
         bf:b6:3a:71:65:ed:b7:79:4c:a9:76:a3:1c:82:86:fe:6c:81:
         ef:43:03:44:28:0c:36:fc:87:84:2f:3c:fa:6f:97:5b:42:2a:
         39:5b:21:04:e1:5e:c9:15:50:22:69:62:40:e8:1d:80:c7:19:
         a4:8d:c1:c3:f5:5c:a1:44:c7:be:6f:dc:b0:02:f3:0d:92:32:
         0a:8d:c5:55:e8:ca:d5:e0:8b:66:2d:5b:24:83:ed:7f:ef:82:
         5a:79:11:9c:f0:c7:52:c5:06:1b:cf:7e:58:58:97:22:84:7b:
         0a:6e:bc:99:35:18:ef:a4:6b:98:ce:16:6b:eb:e0:48:87:35:
         cf:e9:56:fc:75:c4:a4:15:86:9a:08:f5:bc:fd:d5:bc:3a:78:
         b2:4e:4e:b6:80:b9:7a:4f:c9:d7:b8:b4:95:aa:f9:65:5d:c4:
         37:78:5f:a4
-----BEGIN CERTIFICATE REQUEST-----
MIIC7jCCAdYCAQAwgagxCzAJBgNVBAYTAlVTMQswCQYDVQQIEwJDQTESMBAGA1UE
BxMJUGFsbyBBbHRvMRUwEwYDVQQKEwxPcGVuIHZTd2l0Y2gxHzAdBgNVBAsTFk9w
ZW4gdlN3aXRjaCBjZXJ0aWZpZXIxQDA+BgNVBAMTN3Rlc3RzL3BraS90ZXN0MiBp
ZDo1NjhhZGM3My0zNDg2LTQ0NDAtYjIzMC0yMzY2YWYyZmZkNGQwggEiMA0GCSqG
SIb3DQEBAQUAA4IBDwAwggEKAoIBAQDA1h/Qy0K9IagtSr8luwKozVpsk+UUxMFf
ucmmSfK7K1skyhnzRYxRCuROeF/p6tItn9SVLlBiQY+FMItI+hxfG/u6HuucIH7t
ESgPz79y2TxBq8cqIZGRocgKrewRwXvrslpabPsgSXZcl70S+kcDZnM0raRI7sjV
5DgR861zeZTitmi5eu4m2MtA9TI33Gtem2pPDEF3sSGXycet6t1qMJtufLG1PejF
c9/JdPsIPGC4RmzZKuo07fHZ1KRKao8OxukZG2w7aLryIxf3xWE1EPXFcOnzG2bQ
zGWfVffBOFihyEJMgehwD2P84T/fHaapKBmejmcAMpL1KtNJoft5AgMBAAGgADAN
BgkqhkiG9w0BAQsFAAOCAQEAn7bALGc/a3tcgcChdti7d7T9bwSDWb+28j+a1Qxj
R1sOQr9aHVfxLqjQSx4jU0/OrFxNMDkzVyeOce/NglSdKLyFWXGpRZpi0hydHbyf
WcNeer16GM6nUyY2v7Y6cWXtt3lMqXajHIKG/myB70MDRCgMNvyHhC88+m+XW0Iq
OVshBOFeyRVQImliQOgdgMcZpI3Bw/VcoUTHvm/csALzDZIyCo3FVejK1eCLZi1b
JIPtf++CWnkRnPDHUsUGG89+WFiXIoR7Cm68mTUY76RrmM4Wa+vgSIc1z+lW/HXE
pBWGmgj1vP3VvDp4sk5OtoC5ek/J17i0lar5ZV3EN3hfpA==
-----END CERTIFICATE REQUEST-----
