Certificate:
    Data:
        Version: 1 (0x0)
        Serial Number: 3 (0x3)
    Signature Algorithm: sha1WithRSAEncryption
        Issuer: C=US, ST=CA, O=Open vSwitch, OU=switchca, CN=OVS switchca CA Certificate (2016 Oct 24 10:28:59)
        Validity
            Not Before: Oct 24 16:29:00 2016 GMT
            Not After : Oct 22 16:29:00 2026 GMT
        Subject: C=US, ST=CA, O=Open vSwitch, OU=Open vSwitch certifier, CN=tests/pki/test2 id:568adc73-3486-4440-b230-2366af2ffd4d
        Subject Public Key Info:
            Public Key Algorithm: rsaEncryption
                Public-Key: (2048 bit)
                Modulus:
                    00:c0:d6:1f:d0:cb:42:bd:21:a8:2d:4a:bf:25:bb:
                    02:a8:cd:5a:6c:93:e5:14:c4:c1:5f:b9:c9:a6:49:
                    f2:bb:2b:5b:24:ca:19:f3:45:8c:51:0a:e4:4e:78:
                    5f:e9:ea:d2:2d:9f:d4:95:2e:50:62:41:8f:85:30:
                    8b:48:fa:1c:5f:1b:fb:ba:1e:eb:9c:20:7e:ed:11:
                    28:0f:cf:bf:72:d9:3c:41:ab:c7:2a:21:91:91:a1:
                    c8:0a:ad:ec:11:c1:7b:eb:b2:5a:5a:6c:fb:20:49:
                    76:5c:97:bd:12:fa:47:03:66:73:34:ad:a4:48:ee:
                    c8:d5:e4:38:11:f3:ad:73:79:94:e2:b6:68:b9:7a:
                    ee:26:d8:cb:40:f5:32:37:dc:6b:5e:9b:6a:4f:0c:
                    41:77:b1:21:97:c9:c7:ad:ea:dd:6a:30:9b:6e:7c:
                    b1:b5:3d:e8:c5:73:df:c9:74:fb:08:3c:60:b8:46:
                    6c:d9:2a:ea:34:ed:f1:d9:d4:a4:4a:6a:8f:0e:c6:
                    e9:19:1b:6c:3b:68:ba:f2:23:17:f7:c5:61:35:10:
                    f5:c5:70:e9:f3:1b:66:d0:cc:65:9f:55:f7:c1:38:
                    58:a1:c8:42:4c:81:e8:70:0f:63:fc:e1:3f:df:1d:
                    a6:a9:28:19:9e:8e:67:00:32:92:f5:2a:d3:49:a1:
                    fb:79
                Exponent: 65537 (0x10001)
    Signature Algorithm: sha1WithRSAEncryption
         9d:14:70:9a:e0:f2:87:53:cf:09:2f:bd:a8:64:9f:cd:0d:c3:
         b1:a2:91:4e:25:dd:b9:15:9e:39:e1:c4:e0:c8:d6:72:a2:c7:
         f6:f6:5b:e4:f9:51:50:cf:fb:da:c4:2a:55:43:c7:41:cd:2c:
         26:57:86:88:7c:37:df:d5:5b:f3:ce:a6:53:1b:1a:d6:d5:bc:
         8d:b5:c0:b5:1b:93:74:b1:31:24:19:ac:09:c7:94:82:08:5b:
         c7:52:f0:ec:72:77:c5:47:c1:d2:48:db:f8:ba:56:3b:27:39:
         ec:e4:e9:a4:53:70:d8:77:14:86:43:71:d7:f0:33:6c:e9:a4:
         13:c9:f9:f4:55:26:af:82:41:d0:16:9e:85:30:54:48:40:5f:
         b4:f6:9a:61:75:db:5b:47:93:6b:c8:dc:0b:e5:15:4f:89:88:
         de:3c:8e:0d:57:e2:d7:42:d2:24:27:be:7a:e3:05:4d:5f:72:
         da:43:cf:18:31:a6:48:e8:54:c9:a7:b1:ac:99:22:2b:02:f4:
         e9:dc:0c:bf:ad:59:28:a1:ae:47:17:a8:9f:67:b6:a1:cf:98:
         59:48:1f:85:cd:98:87:f8:89:1b:ab:9b:14:61:19:00:18:c9:
         bd:a3:30:c0:42:a6:ea:d3:bf:ae:6b:6d:c7:c9:db:ed:b7:32:
         9d:a6:f6:41
-----BEGIN CERTIFICATE-----
MIIDizCCAnMCAQMwDQYJKoZIhvcNAQEFBQAwgYExCzAJBgNVBAYTAlVTMQswCQYD
VQQIEwJDQTEVMBMGA1UEChMMT3BlbiB2U3dpdGNoMREwDwYDVQQLEwhzd2l0Y2hj
YTE7MDkGA1UEAxMyT1ZTIHN3aXRjaGNhIENBIENlcnRpZmljYXRlICgyMDE2IE9j
dCAyNCAxMDoyODo1OSkwHhcNMTYxMDI0MTYyOTAwWhcNMjYxMDIyMTYyOTAwWjCB
lDELMAkGA1UEBhMCVVMxCzAJBgNVBAgTAkNBMRUwEwYDVQQKEwxPcGVuIHZTd2l0
Y2gxHzAdBgNVBAsTFk9wZW4gdlN3aXRjaCBjZXJ0aWZpZXIxQDA+BgNVBAMTN3Rl
c3RzL3BraS90ZXN0MiBpZDo1NjhhZGM3My0zNDg2LTQ0NDAtYjIzMC0yMzY2YWYy
ZmZkNGQwggEiMA0GCSqGSIb3DQEBAQUAA4IBDwAwggEKAoIBAQDA1h/Qy0K9Iagt
Sr8luwKozVpsk+UUxMFfucmmSfK7K1skyhnzRYxRCuROeF/p6tItn9SVLlBiQY+F
MItI+hxfG/u6HuucIH7tESgPz79y2TxBq8cqIZGRocgKrewRwXvrslpabPsgSXZc
l70S+kcDZnM0raRI7sjV5DgR861zeZTitmi5eu4m2MtA9TI33Gtem2pPDEF3sSGX
ycet6t1qMJtufLG1PejFc9/JdPsIPGC4RmzZKuo07fHZ1KRKao8OxukZG2w7aLry
Ixf3xWE1EPXFcOnzG2bQzGWfVffBOFihyEJMgehwD2P84T/fHaapKBmejmcAMpL1
KtNJoft5AgMBAAEwDQYJKoZIhvcNAQEFBQADggEBAJ0UcJrg8odTzwkvvahkn80N
w7GikU4l3bkVnjnhxODI1nKix/b2W+T5UVDP+9rEKlVDx0HNLCZXhoh8N9/VW/PO
plMbGtbVvI21wLUbk3SxMSQZrAnHlIIIW8dS8Oxyd8VHwdJI2/i6VjsnOezk6aRT
cNh3FIZDcdfwM2zppBPJ+fRVJq+CQdAWnoUwVEhAX7T2mmF121tHk2vI3AvlFU+J
iN48jg1X4tdC0iQnvnrjBU1fctpDzxgxpkjoVMmnsayZIisC9OncDL+tWSihrkcX
qJ9ntqHPmFlIH4XNmIf4iRurmxRhGQAYyb2jMMBCpurTv65rbcfJ2+23Mp2m9kE=
-----END CERTIFICATE-----
