Certificate Request:
    Data:
        Version: 0 (0x0)
        Subject: C=US, ST=CA, L=Palo Alto, O=Open vSwitch, OU=Open vSwitch certifier, CN=tests/pki/test id:d9076fbc-be02-44b2-b036-d01852597d4e
        Subject Public Key Info:
            Public Key Algorithm: rsaEncryption
                Public-Key: (2048 bit)
                Modulus:
                    00:cb:19:2a:20:5d:97:4a:a7:42:b9:37:c1:a7:70:
                    c2:5b:5c:ae:54:94:bf:b3:75:e3:9d:e4:16:b8:24:
                    ef:07:9a:15:4e:3f:e0:28:0d:0c:26:34:68:ec:99:
                    1a:78:d8:ed:10:90:e9:fa:27:9f:77:7a:25:1c:33:
                    74:e8:91:71:15:22:78:7d:a4:41:8f:e5:11:b0:46:
                    73:85:74:20:27:af:e8:a8:ca:1a:69:7a:b3:e5:e6:
                    67:9b:7c:f9:dd:67:bd:3e:00:51:bd:03:47:49:54:
                    12:a0:d6:a3:99:25:85:ec:6d:60:5a:40:31:ea:e2:
                    19:1d:4b:94:9a:71:e0:2d:41:b7:3d:f7:70:c6:60:
                    7a:df:c1:fe:69:24:d7:dc:19:68:49:9c:79:29:60:
                    9a:b0:b1:05:aa:5e:cb:5e:1e:5f:80:83:ed:43:67:
                    13:aa:ce:0c:f1:13:98:fa:01:26:88:d0:7a:ce:e5:
                    bc:24:88:ed:79:f6:8f:10:29:9f:dc:e6:53:5f:bc:
                    c4:c2:03:7f:3f:39:0c:ce:25:fc:a2:e1:31:07:b3:
                    7b:1d:db:48:c1:4f:7a:61:d9:46:a4:d4:46:02:57:
                    a5:87:7b:42:10:cb:7c:d3:49:ef:e6:da:53:99:07:
                    9c:9b:48:0e:28:9c:c5:ac:98:fb:8e:75:eb:2f:2b:
                    be:5d
                Exponent: 65537 (0x10001)
        Attributes:
            a0:00
    Signature Algorithm: sha256WithRSAEncryption
         98:ae:a0:35:66:25:06:dd:c2:b1:8f:91:3b:7d:c2:3f:0b:e6:
         25:64:f0:56:57:dd:c9:fc:f5:3e:3f:af:4e:2b:24:05:8a:3e:
         23:80:ac:41:04:ae:6d:c6:d5:b0:60:3d:5b:9c:b9:62:30:67:
         be:b3:49:23:85:c6:12:28:f9:e5:53:b9:a0:92:91:77:c8:c2:
         2a:43:ac:cb:b7:13:6a:16:0b:98:fd:87:ab:a1:29:12:16:cd:
         2f:8f:53:a8:ac:d2:1a:70:66:8f:e0:13:60:7e:cd:6c:cd:71:
         b4:d4:22:c3:24:4e:d7:2d:15:9d:48:76:9a:5b:20:e0:f7:4d:
         cc:e5:1f:05:92:4f:a8:3d:88:99:c2:62:8b:f3:3e:f3:13:67:
         f0:75:27:f8:03:b8:0f:7c:c5:5f:4a:ce:e0:da:5d:09:30:ef:
         ad:1b:4e:51:a5:ce:38:5d:81:58:1b:1a:31:e6:71:e2:1e:a2:
         5c:11:23:69:6a:7b:ba:fd:87:2a:99:98:63:43:23:b6:82:e6:
         02:6e:b2:29:f8:3a:ca:83:5b:ff:8e:f3:bb:a2:4f:24:0e:ae:
         04:16:9a:a9:a0:88:33:b3:23:a1:c9:41:15:9f:0f:3f:ce:99:
         78:5c:32:b3:d1:3a:b2:31:8e:a1:42:a8:fe:05:75:e5:b2:0f:
         ce:c4:17:72
-----BEGIN CERTIFICATE REQUEST-----
MIIC7TCCAdUCAQAwgacxCzAJBgNVBAYTAlVTMQswCQYDVQQIEwJDQTESMBAGA1UE
BxMJUGFsbyBBbHRvMRUwEwYDVQQKEwxPcGVuIHZTd2l0Y2gxHzAdBgNVBAsTFk9w
ZW4gdlN3aXRjaCBjZXJ0aWZpZXIxPzA9BgNVBAMTNnRlc3RzL3BraS90ZXN0IGlk
OmQ5MDc2ZmJjLWJlMDItNDRiMi1iMDM2LWQwMTg1MjU5N2Q0ZTCCASIwDQYJKoZI
hvcNAQEBBQADggEPADCCAQoCggEBAMsZKiBdl0qnQrk3wadwwltcrlSUv7N1453k
Frgk7weaFU4/4CgNDCY0aOyZGnjY7RCQ6fonn3d6JRwzdOiRcRUieH2kQY/lEbBG
c4V0ICev6KjKGml6s+XmZ5t8+d1nvT4AUb0DR0lUEqDWo5klhextYFpAMeriGR1L
lJpx4C1Btz33cMZget/B/mkk19wZaEmceSlgmrCxBapey14eX4CD7UNnE6rODPET
mPoBJojQes7lvCSI7Xn2jxApn9zmU1+8xMIDfz85DM4l/KLhMQezex3bSMFPemHZ
RqTURgJXpYd7QhDLfNNJ7+baU5kHnJtIDiicxayY+4516y8rvl0CAwEAAaAAMA0G
CSqGSIb3DQEBCwUAA4IBAQCYrqA1ZiUG3cKxj5E7fcI/C+YlZPBWV93J/PU+P69O
KyQFij4jgKxBBK5txtWwYD1bnLliMGe+s0kjhcYSKPnlU7mgkpF3yMIqQ6zLtxNq
FguY/YeroSkSFs0vj1OorNIacGaP4BNgfs1szXG01CLDJE7XLRWdSHaaWyDg903M
5R8Fkk+oPYiZwmKL8z7zE2fwdSf4A7gPfMVfSs7g2l0JMO+tG05Rpc44XYFYGxox
5nHiHqJcESNpanu6/YcqmZhjQyO2guYCbrIp+DrKg1v/jvO7ok8kDq4EFpqpoIgz
syOhyUEVnw8/zpl4XDKz0TqyMY6hQqj+BXXlsg/OxBdy
-----END CERTIFICATE REQUEST-----
