Certificate:
    Data:
        Version: 1 (0x0)
        Serial Number: 2 (0x2)
    Signature Algorithm: sha1WithRSAEncryption
        Issuer: C=US, ST=CA, O=Open vSwitch, OU=switchca, CN=OVS switchca CA Certificate (2016 Oct 24 10:28:59)
        Validity
            Not Before: Oct 24 16:28:59 2016 GMT
            Not After : Oct 22 16:28:59 2026 GMT
        Subject: C=US, ST=CA, O=Open vSwitch, OU=Open vSwitch certifier, CN=tests/pki/test id:d9076fbc-be02-44b2-b036-d01852597d4e
        Subject Public Key Info:
            Public Key Algorithm: rsaEncryption
                Public-Key: (2048 bit)
                Modulus:
                    00:cb:19:2a:20:5d:97:4a:a7:42:b9:37:c1:a7:70:
                    c2:5b:5c:ae:54:94:bf:b3:75:e3:9d:e4:16:b8:24:
                    ef:07:9a:15:4e:3f:e0:28:0d:0c:26:34:68:ec:99:
                    1a:78:d8:ed:10:90:e9:fa:27:9f:77:7a:25:1c:33:
                    74:e8:91:71:15:22:78:7d:a4:41:8f:e5:11:b0:46:
                    73:85:74:20:27:af:e8:a8:ca:1a:69:7a:b3:e5:e6:
                    67:9b:7c:f9:dd:67:bd:3e:00:51:bd:03:47:49:54:
                    12:a0:d6:a3:99:25:85:ec:6d:60:5a:40:31:ea:e2:
                    19:1d:4b:94:9a:71:e0:2d:41:b7:3d:f7:70:c6:60:
                    7a:df:c1:fe:69:24:d7:dc:19:68:49:9c:79:29:60:
                    9a:b0:b1:05:aa:5e:cb:5e:1e:5f:80:83:ed:43:67:
                    13:aa:ce:0c:f1:13:98:fa:01:26:88:d0:7a:ce:e5:
                    bc:24:88:ed:79:f6:8f:10:29:9f:dc:e6:53:5f:bc:
                    c4:c2:03:7f:3f:39:0c:ce:25:fc:a2:e1:31:07:b3:
                    7b:1d:db:48:c1:4f:7a:61:d9:46:a4:d4:46:02:57:
                    a5:87:7b:42:10:cb:7c:d3:49:ef:e6:da:53:99:07:
                    9c:9b:48:0e:28:9c:c5:ac:98:fb:8e:75:eb:2f:2b:
                    be:5d
                Exponent: 65537 (0x10001)
    Signature Algorithm: sha1WithRSAEncryption
         3a:3b:ec:25:17:b5:f1:1b:37:b0:75:c5:03:7b:20:2b:cf:02:
         fb:3f:06:29:f4:a3:b3:6e:1e:c3:f0:8b:c2:f4:44:74:cf:5c:
         c6:90:ed:42:5d:c6:00:18:4f:70:a9:b7:3e:ba:1b:9f:81:74:
         d7:1a:5a:3e:44:51:03:f9:0e:44:b8:10:da:f2:51:13:b5:66:
         ed:d0:d0:c5:64:f7:73:f3:d1:c9:75:4a:ec:56:82:da:9d:8a:
         66:2e:b7:d9:d3:55:90:de:d3:b1:9b:89:4b:3e:57:2b:a5:e9:
         bc:65:01:33:5b:81:55:69:72:84:45:7e:09:bc:f8:62:8d:a0:
         45:ce:f7:c5:ae:6a:06:a5:98:90:b9:84:06:f4:3e:95:d6:69:
         d7:9a:ba:8b:c0:42:9f:e5:60:46:96:60:76:e7:64:08:7c:26:
         61:11:0f:e7:a9:28:e0:e9:93:05:24:2f:31:b9:a7:f6:fc:42:
         29:50:d6:1b:b8:25:3e:5a:8d:1e:b3:6b:38:ee:f8:e9:8c:fb:
         6a:49:4a:f9:c5:88:d8:90:43:20:0d:9a:d0:48:79:1b:14:5e:
         7e:ec:2d:b4:f0:d7:4d:0f:96:ce:97:43:b3:68:50:3a:1c:ca:
         2f:83:f7:27:72:af:80:cf:7f:2f:e9:71:48:4e:3b:7d:7f:9d:
         72:19:c6:4f
-----BEGIN CERTIFICATE-----
MIIDijCCAnICAQIwDQYJKoZIhvcNAQEFBQAwgYExCzAJBgNVBAYTAlVTMQswCQYD
VQQIEwJDQTEVMBMGA1UEChMMT3BlbiB2U3dpdGNoMREwDwYDVQQLEwhzd2l0Y2hj
YTE7MDkGA1UEAxMyT1ZTIHN3aXRjaGNhIENBIENlcnRpZmljYXRlICgyMDE2IE9j
dCAyNCAxMDoyODo1OSkwHhcNMTYxMDI0MTYyODU5WhcNMjYxMDIyMTYyODU5WjCB
kzELMAkGA1UEBhMCVVMxCzAJBgNVBAgTAkNBMRUwEwYDVQQKEwxPcGVuIHZTd2l0
Y2gxHzAdBgNVBAsTFk9wZW4gdlN3aXRjaCBjZXJ0aWZpZXIxPzA9BgNVBAMTNnRl
c3RzL3BraS90ZXN0IGlkOmQ5MDc2ZmJjLWJlMDItNDRiMi1iMDM2LWQwMTg1MjU5
N2Q0ZTCCASIwDQYJKoZIhvcNAQEBBQADggEPADCCAQoCggEBAMsZKiBdl0qnQrk3
wadwwltcrlSUv7N1453kFrgk7weaFU4/4CgNDCY0aOyZGnjY7RCQ6fonn3d6JRwz
dOiRcRUieH2kQY/lEbBGc4V0ICev6KjKGml6s+XmZ5t8+d1nvT4AUb0DR0lUEqDW
o5klhextYFpAMeriGR1LlJpx4C1Btz33cMZget/B/mkk19wZaEmceSlgmrCxBape
y14eX4CD7UNnE6rODPETmPoBJojQes7lvCSI7Xn2jxApn9zmU1+8xMIDfz85DM4l
/KLhMQezex3bSMFPemHZRqTURgJXpYd7QhDLfNNJ7+baU5kHnJtIDiicxayY+451
6y8rvl0CAwEAATANBgkqhkiG9w0BAQUFAAOCAQEAOjvsJRe18Rs3sHXFA3sgK88C
+z8GKfSjs24ew/CLwvREdM9cxpDtQl3GABhPcKm3Probn4F01xpaPkRRA/kORLgQ
2vJRE7Vm7dDQxWT3c/PRyXVK7FaC2p2KZi632dNVkN7TsZuJSz5XK6XpvGUBM1uB
VWlyhEV+Cbz4Yo2gRc73xa5qBqWYkLmEBvQ+ldZp15q6i8BCn+VgRpZgdudkCHwm
YREP56ko4OmTBSQvMbmn9vxCKVDWG7glPlqNHrNrOO746Yz7aklK+cWI2JBDIA2a
0Eh5GxRefuwttPDXTQ+WzpdDs2hQOhzKL4P3J3KvgM9/L+lxSE47fX+dchnGTw==
-----END CERTIFICATE-----
