Certificate:
    Data:
        Version: 1 (0x0)
        Serial Number: 1 (0x1)
    Signature Algorithm: sha1WithRSAEncryption
        Issuer: C=US, ST=CA, O=Open vSwitch, OU=switchca, CN=OVS switchca CA Certificate (2016 Oct 24 10:28:59)
        Validity
            Not Before: Oct 24 16:28:59 2016 GMT
            Not After : Oct 22 16:28:59 2026 GMT
        Subject: C=US, ST=CA, O=Open vSwitch, OU=switchca, CN=OVS switchca CA Certificate (2016 Oct 24 10:28:59)
        Subject Public Key Info:
            Public Key Algorithm: rsaEncryption
                Public-Key: (2048 bit)
                Modulus:
                    00:b9:03:40:1c:8d:7f:4c:74:ea:8c:c5:6e:7a:ef:
                    a6:f4:56:4c:e3:f2:ab:f5:15:9c:2f:9c:c9:49:68:
                    ad:97:7c:5e:a4:6e:a2:83:17:c4:d6:00:bf:fb:27:
                    3f:c2:38:a5:74:84:74:ad:be:fb:ba:52:68:aa:18:
                    9e:49:c8:b8:ff:8f:50:6c:3f:1b:56:9d:6e:9d:db:
                    82:4c:0a:09:94:f0:ba:67:05:b1:17:2d:2c:d2:1f:
                    29:49:1b:64:6c:b6:fd:e3:ee:cc:f9:2b:4e:60:6a:
                    70:2e:81:23:6b:13:aa:39:3f:d2:d3:24:b7:40:6e:
                    89:c3:5a:48:1d:e4:f0:f0:f4:5f:e6:44:e0:28:a2:
                    4c:43:65:1e:31:1d:93:1d:53:ff:8f:67:7e:25:00:
                    fe:90:97:9f:ff:86:81:2a:12:8c:01:45:f5:08:78:
                    2f:91:c7:1a:91:e3:53:37:de:31:a7:3d:40:3b:ea:
                    37:03:ea:ce:b7:fd:64:05:0c:f8:9b:9e:cf:ae:f9:
                    81:8a:d5:4b:1f:ad:d1:6a:5d:47:5a:74:04:11:4a:
                    cf:d9:e4:a3:94:89:4f:16:1a:86:63:2a:0f:45:13:
                    2c:69:b4:c7:50:8f:3c:f4:3e:65:da:07:6d:1c:63:
                    1a:34:01:bd:4b:b1:21:ff:c7:49:2a:90:d1:d3:99:
                    8a:21
                Exponent: 65537 (0x10001)
    Signature Algorithm: sha1WithRSAEncryption
         63:d8:6f:35:02:e8:93:ef:89:6c:c9:93:ea:b5:a3:0e:e6:43:
         5f:e4:5e:45:4b:d8:d9:43:b1:c4:fd:42:f2:40:72:2f:30:da:
         a7:fb:7d:b2:6a:b4:2a:91:e1:2d:be:b4:00:60:a0:77:eb:35:
         a6:d9:31:e7:54:50:79:3b:dd:7a:66:b2:8d:85:88:de:8e:f3:
         8e:06:9b:81:61:bb:7d:37:a4:cb:20:9b:4a:e3:60:50:82:e2:
         07:e1:94:66:ac:67:96:88:7c:54:14:c2:74:13:4f:51:92:fe:
         5e:d8:3c:bb:ca:33:0c:2e:ac:57:3b:b0:33:07:4f:00:e7:38:
         bb:0c:cf:8d:c7:62:13:c0:46:a6:11:c7:6b:3a:63:5e:5d:4d:
         67:e1:18:4b:39:b1:32:91:94:54:0a:53:37:52:13:1d:bd:a0:
         fd:db:2c:f7:0d:9c:a1:81:bf:3d:77:17:f7:61:f3:18:3d:0a:
         04:12:d9:3f:be:5b:a8:64:02:63:67:a1:78:62:22:3a:c3:e5:
         03:c2:dc:0e:34:b3:aa:bc:73:3a:ba:8e:b9:38:78:78:1f:58:
         de:7a:f7:09:51:cd:fd:45:14:b9:19:22:0e:a1:de:af:14:5a:
         df:d1:71:85:03:6a:52:aa:79:8b:dd:f2:42:c8:66:ed:cc:6b:
         79:17:0f:74
-----BEGIN CERTIFICATE-----
MIIDeDCCAmACAQEwDQYJKoZIhvcNAQEFBQAwgYExCzAJBgNVBAYTAlVTMQswCQYD
VQQIEwJDQTEVMBMGA1UEChMMT3BlbiB2U3dpdGNoMREwDwYDVQQLEwhzd2l0Y2hj
YTE7MDkGA1UEAxMyT1ZTIHN3aXRjaGNhIENBIENlcnRpZmljYXRlICgyMDE2IE9j
dCAyNCAxMDoyODo1OSkwHhcNMTYxMDI0MTYyODU5WhcNMjYxMDIyMTYyODU5WjCB
gTELMAkGA1UEBhMCVVMxCzAJBgNVBAgTAkNBMRUwEwYDVQQKEwxPcGVuIHZTd2l0
Y2gxETAPBgNVBAsTCHN3aXRjaGNhMTswOQYDVQQDEzJPVlMgc3dpdGNoY2EgQ0Eg
Q2VydGlmaWNhdGUgKDIwMTYgT2N0IDI0IDEwOjI4OjU5KTCCASIwDQYJKoZIhvcN
AQEBBQADggEPADCCAQoCggEBALkDQByNf0x06ozFbnrvpvRWTOPyq/UVnC+cyUlo
rZd8XqRuooMXxNYAv/snP8I4pXSEdK2++7pSaKoYnknIuP+PUGw/G1adbp3bgkwK
CZTwumcFsRctLNIfKUkbZGy2/ePuzPkrTmBqcC6BI2sTqjk/0tMkt0BuicNaSB3k
8PD0X+ZE4CiiTENlHjEdkx1T/49nfiUA/pCXn/+GgSoSjAFF9Qh4L5HHGpHjUzfe
Mac9QDvqNwPqzrf9ZAUM+Juez675gYrVSx+t0WpdR1p0BBFKz9nko5SJTxYahmMq
D0UTLGm0x1CPPPQ+ZdoHbRxjGjQBvUuxIf/HSSqQ0dOZiiECAwEAATANBgkqhkiG
9w0BAQUFAAOCAQEAY9hvNQLok++JbMmT6rWjDuZDX+ReRUvY2UOxxP1C8kByLzDa
p/t9smq0KpHhLb60AGCgd+s1ptkx51RQeTvdemayjYWI3o7zjgabgWG7fTekyyCb
SuNgUILiB+GUZqxnloh8VBTCdBNPUZL+Xtg8u8ozDC6sVzuwMwdPAOc4uwzPjcdi
E8BGphHHazpjXl1NZ+EYSzmxMpGUVApTN1ITHb2g/dss9w2coYG/PXcX92HzGD0K
BBLZP75bqGQCY2eheGIiOsPlA8LcDjSzqrxzOrqOuTh4eB9Y3nr3CVHN/UUUuRki
DqHerxRa39FxhQNqUqp5i93yQshm7cxreRcPdA==
-----END CERTIFICATE-----
