Certificate:
    Data:
        Version: 1 (0x0)
        Serial Number: 1 (0x1)
    Signature Algorithm: sha1WithRSAEncryption
        Issuer: C=US, ST=CA, O=Open vSwitch, OU=controllerca, CN=OVS controllerca CA Certificate (2016 Oct 24 10:28:59)
        Validity
            Not Before: Oct 24 16:28:59 2016 GMT
            Not After : Oct 22 16:28:59 2026 GMT
        Subject: C=US, ST=CA, O=Open vSwitch, OU=controllerca, CN=OVS controllerca CA Certificate (2016 Oct 24 10:28:59)
        Subject Public Key Info:
            Public Key Algorithm: rsaEncryption
                Public-Key: (2048 bit)
                Modulus:
                    00:da:61:38:41:4c:d0:b4:47:70:4e:68:2e:d1:fa:
                    3f:09:79:55:ab:97:ae:be:8a:83:cc:52:c3:e4:d3:
                    49:9c:aa:e7:70:a5:34:6f:09:a6:6c:40:69:2e:b3:
                    d1:5f:a5:82:e8:7a:1e:60:fe:fb:cd:9e:f5:bf:94:
                    02:c5:8a:15:8b:59:9d:48:a3:23:64:27:85:fe:bd:
                    bc:d1:9f:65:0a:86:eb:78:a4:ef:01:a1:9b:3c:b6:
                    2c:e4:b8:31:ea:14:0f:3f:bf:86:24:ab:c8:87:31:
                    b0:8b:95:9d:62:d8:de:3e:a7:54:36:f5:e1:59:5d:
                    8a:28:7f:e0:7b:63:24:f7:bc:f9:89:aa:88:d5:87:
                    02:5b:b9:08:f3:4d:62:cd:92:bd:57:32:c9:2c:cb:
                    fb:cd:3b:d1:40:ab:5a:7b:07:89:2b:d8:54:d2:14:
                    0b:f6:67:0f:2b:d7:9e:d2:ab:c7:06:35:f8:91:e8:
                    10:9b:41:eb:40:f0:15:84:0e:c9:4e:1d:08:84:b1:
                    11:3f:56:5b:34:a0:ee:79:c3:89:5f:6c:e5:a4:e7:
                    45:14:bc:f8:af:0e:06:cb:7a:f4:ab:f6:ea:18:ab:
                    f1:a1:b2:66:22:51:51:d9:4a:41:df:da:ad:9c:ed:
                    6a:94:bd:68:64:84:c0:fa:6b:bd:92:7c:af:e1:e4:
                    a6:09
                Exponent: 65537 (0x10001)
    Signature Algorithm: sha1WithRSAEncryption
         45:c7:7d:32:92:16:c2:9f:83:e6:01:cc:94:91:41:8c:36:0a:
         3a:7e:f9:ec:00:09:77:e1:e8:ec:40:9c:3d:a0:02:a1:f2:76:
         c1:1e:3a:fc:d9:71:17:be:8a:90:ec:fa:46:90:3e:07:4c:e3:
         35:2b:c8:4a:61:5a:1f:ec:85:a1:97:51:a3:6d:93:9e:7d:50:
         de:0d:e0:c3:98:b2:31:5a:da:0f:1f:57:db:b4:08:f3:c5:14:
         3a:5d:00:f6:8c:75:f6:71:9b:2a:31:44:e6:bb:ea:0a:e8:35:
         09:89:48:f8:ff:52:a1:86:ad:90:7d:ca:b6:e5:46:b8:c9:09:
         63:60:24:59:e4:19:96:bd:38:80:c4:8c:47:ad:b5:7e:76:85:
         27:98:14:f1:ac:2a:15:ab:fb:53:95:7e:44:38:93:bd:e1:53:
         d0:ac:3c:ca:35:83:7a:21:e5:eb:66:9e:81:99:81:9f:0c:4e:
         77:56:1c:96:81:62:d7:85:ef:cd:e5:bd:78:96:9e:01:16:74:
         6d:8f:a3:86:ca:29:80:84:24:4a:5d:7c:79:ef:63:70:6e:55:
         cb:42:e7:df:e4:2e:6d:0c:73:d1:78:d2:ad:d9:a7:30:57:55:
         4b:1f:42:f0:44:be:5e:c6:13:5c:b5:19:27:42:df:53:5a:2c:
         e9:8c:bd:76
-----BEGIN CERTIFICATE-----
MIIDiDCCAnACAQEwDQYJKoZIhvcNAQEFBQAwgYkxCzAJBgNVBAYTAlVTMQswCQYD
VQQIEwJDQTEVMBMGA1UEChMMT3BlbiB2U3dpdGNoMRUwEwYDVQQLEwxjb250cm9s
bGVyY2ExPzA9BgNVBAMTNk9WUyBjb250cm9sbGVyY2EgQ0EgQ2VydGlmaWNhdGUg
KDIwMTYgT2N0IDI0IDEwOjI4OjU5KTAeFw0xNjEwMjQxNjI4NTlaFw0yNjEwMjIx
NjI4NTlaMIGJMQswCQYDVQQGEwJVUzELMAkGA1UECBMCQ0ExFTATBgNVBAoTDE9w
ZW4gdlN3aXRjaDEVMBMGA1UECxMMY29udHJvbGxlcmNhMT8wPQYDVQQDEzZPVlMg
Y29udHJvbGxlcmNhIENBIENlcnRpZmljYXRlICgyMDE2IE9jdCAyNCAxMDoyODo1
OSkwggEiMA0GCSqGSIb3DQEBAQUAA4IBDwAwggEKAoIBAQDaYThBTNC0R3BOaC7R
+j8JeVWrl66+ioPMUsPk00mcqudwpTRvCaZsQGkus9FfpYLoeh5g/vvNnvW/lALF
ihWLWZ1IoyNkJ4X+vbzRn2UKhut4pO8BoZs8tizkuDHqFA8/v4Ykq8iHMbCLlZ1i
2N4+p1Q29eFZXYoof+B7YyT3vPmJqojVhwJbuQjzTWLNkr1XMsksy/vNO9FAq1p7
B4kr2FTSFAv2Zw8r157Sq8cGNfiR6BCbQetA8BWEDslOHQiEsRE/Vls0oO55w4lf
bOWk50UUvPivDgbLevSr9uoYq/GhsmYiUVHZSkHf2q2c7WqUvWhkhMD6a72SfK/h
5KYJAgMBAAEwDQYJKoZIhvcNAQEFBQADggEBAEXHfTKSFsKfg+YBzJSRQYw2Cjp+
+ewACXfh6OxAnD2gAqHydsEeOvzZcRe+ipDs+kaQPgdM4zUryEphWh/shaGXUaNt
k559UN4N4MOYsjFa2g8fV9u0CPPFFDpdAPaMdfZxmyoxROa76groNQmJSPj/UqGG
rZB9yrblRrjJCWNgJFnkGZa9OIDEjEettX52hSeYFPGsKhWr+1OVfkQ4k73hU9Cs
PMo1g3oh5etmnoGZgZ8MTndWHJaBYteF783lvXiWngEWdG2Po4bKKYCEJEpdfHnv
Y3BuVctC59/kLm0Mc9F40q3ZpzBXVUsfQvBEvl7GE1y1GSdC31NaLOmMvXY=
-----END CERTIFICATE-----
